; Function Attrs: nounwind uwtable
define ptr @l___private_Lean_Meta_Tactic_Grind_Arith_Cutsat_EqCnstr_0__Lean_Meta_Grind_Arith_Cutsat_isForbiddenParent___lambda__1___boxed(ptr noundef %0, ptr noundef %1, ptr noundef %2) local_unnamed_addr #1 {
  %4 = ptrtoint ptr %0 to i64
  %5 = lshr i64 %4, 1
  %6 = trunc i64 %5 to i8
  %7 = and i64 %4, 1
  %.not = icmp eq i64 %7, 0
  br i1 %.not, label %8, label %lean_dec.exit8

8:                                                ; preds = %3
  %9 = load i32, ptr %0, align 4, !tbaa !4
  %10 = icmp sgt i32 %9, 1
  br i1 %10, label %11, label %13, !prof !11

11:                                               ; preds = %8
  %12 = add nsw i32 %9, -1
  store i32 %12, ptr %0, align 4, !tbaa !4
  br label %lean_dec.exit8

13:                                               ; preds = %8
  %.not.i = icmp eq i32 %9, 0
  br i1 %.not.i, label %lean_dec.exit8, label %14

14:                                               ; preds = %13
  tail call void @lean_dec_ref_cold(ptr noundef nonnull %0) #7
  br label %lean_dec.exit8

lean_dec.exit8:                                   ; preds = %14, %13, %11, %3
  switch i8 %6, label %lean_dec.exit.i [
    i8 0, label %l___private_Lean_Meta_Tactic_Grind_Arith_Cutsat_EqCnstr_0__Lean_Meta_Grind_Arith_Cutsat_isForbiddenParent___lambda__1.exit
    i8 1, label %15
    i8 2, label %22
  ]

15:                                               ; preds = %lean_dec.exit8
  %16 = load ptr, ptr @l___private_Lean_Meta_Tactic_Grind_Arith_Cutsat_EqCnstr_0__Lean_Meta_Grind_Arith_Cutsat_getKindAndType_x3f___closed__20, align 8, !tbaa !9
  %17 = tail call zeroext i8 @lean_name_eq(ptr noundef %1, ptr noundef %16) #7
  %18 = zext i8 %17 to i64
  %19 = shl nuw nsw i64 %18, 1
  %20 = or disjoint i64 %19, 1
  %21 = inttoptr i64 %20 to ptr
  br label %l___private_Lean_Meta_Tactic_Grind_Arith_Cutsat_EqCnstr_0__Lean_Meta_Grind_Arith_Cutsat_isForbiddenParent___lambda__1.exit

22:                                               ; preds = %lean_dec.exit8
  %23 = load ptr, ptr @l___private_Lean_Meta_Tactic_Grind_Arith_Cutsat_EqCnstr_0__Lean_Meta_Grind_Arith_Cutsat_getKindAndType_x3f___closed__20, align 8, !tbaa !9
  %24 = tail call zeroext i8 @lean_name_eq(ptr noundef %1, ptr noundef %23) #7
  %25 = icmp eq i8 %24, 0
  br i1 %25, label %26, label %l___private_Lean_Meta_Tactic_Grind_Arith_Cutsat_EqCnstr_0__Lean_Meta_Grind_Arith_Cutsat_isForbiddenParent___lambda__1.exit

26:                                               ; preds = %22
  %27 = load ptr, ptr @l___private_Lean_Meta_Tactic_Grind_Arith_Cutsat_EqCnstr_0__Lean_Meta_Grind_Arith_Cutsat_isForbiddenParent___lambda__1___closed__2, align 8, !tbaa !9
  %28 = tail call zeroext i8 @lean_name_eq(ptr noundef %1, ptr noundef %27) #7
  %29 = zext i8 %28 to i64
  %30 = shl nuw nsw i64 %29, 1
  %31 = or disjoint i64 %30, 1
  %32 = inttoptr i64 %31 to ptr
  br label %l___private_Lean_Meta_Tactic_Grind_Arith_Cutsat_EqCnstr_0__Lean_Meta_Grind_Arith_Cutsat_isForbiddenParent___lambda__1.exit

lean_dec.exit.i:                                  ; preds = %lean_dec.exit8
  %33 = load ptr, ptr @l___private_Lean_Meta_Tactic_Grind_Arith_Cutsat_EqCnstr_0__Lean_Meta_Grind_Arith_Cutsat_isForbiddenParent___lambda__1___closed__6, align 8, !tbaa !9
  %34 = load ptr, ptr @l_panic___at___private_Lean_Meta_Tactic_Grind_Arith_Cutsat_EqCnstr_0__Lean_Meta_Grind_Arith_Cutsat_isForbiddenParent___spec__1___closed__1, align 8, !tbaa !9
  %35 = tail call ptr @lean_panic_fn(ptr noundef %34, ptr noundef %33) #7
  br label %l___private_Lean_Meta_Tactic_Grind_Arith_Cutsat_EqCnstr_0__Lean_Meta_Grind_Arith_Cutsat_isForbiddenParent___lambda__1.exit

l___private_Lean_Meta_Tactic_Grind_Arith_Cutsat_EqCnstr_0__Lean_Meta_Grind_Arith_Cutsat_isForbiddenParent___lambda__1.exit: ; preds = %lean_dec.exit8, %15, %22, %26, %lean_dec.exit.i
  %.0.i = phi ptr [ %35, %lean_dec.exit.i ], [ %21, %15 ], [ %32, %26 ], [ inttoptr (i64 1 to ptr), %lean_dec.exit8 ], [ inttoptr (i64 3 to ptr), %22 ]
  %36 = ptrtoint ptr %2 to i64
  %37 = and i64 %36, 1
  %.not13 = icmp eq i64 %37, 0
  br i1 %.not13, label %38, label %lean_dec.exit7

38:                                               ; preds = %l___private_Lean_Meta_Tactic_Grind_Arith_Cutsat_EqCnstr_0__Lean_Meta_Grind_Arith_Cutsat_isForbiddenParent___lambda__1.exit
  %39 = load i32, ptr %2, align 4, !tbaa !4
  %40 = icmp sgt i32 %39, 1
  br i1 %40, label %41, label %43, !prof !11

41:                                               ; preds = %38
  %42 = add nsw i32 %39, -1
  store i32 %42, ptr %2, align 4, !tbaa !4
  br label %lean_dec.exit7

43:                                               ; preds = %38
  %.not.i9 = icmp eq i32 %39, 0
  br i1 %.not.i9, label %lean_dec.exit7, label %44

44:                                               ; preds = %43
  tail call void @lean_dec_ref_cold(ptr noundef nonnull %2) #7
  br label %lean_dec.exit7

lean_dec.exit7:                                   ; preds = %44, %43, %41, %l___private_Lean_Meta_Tactic_Grind_Arith_Cutsat_EqCnstr_0__Lean_Meta_Grind_Arith_Cutsat_isForbiddenParent___lambda__1.exit
  %45 = ptrtoint ptr %1 to i64
  %46 = and i64 %45, 1
  %.not14 = icmp eq i64 %46, 0
  br i1 %.not14, label %47, label %lean_dec.exit

47:                                               ; preds = %lean_dec.exit7
  %48 = load i32, ptr %1, align 4, !tbaa !4
  %49 = icmp sgt i32 %48, 1
  br i1 %49, label %50, label %52, !prof !11

50:                                               ; preds = %47
  %51 = add nsw i32 %48, -1
  store i32 %51, ptr %1, align 4, !tbaa !4
  br label %lean_dec.exit

52:                                               ; preds = %47
  %.not.i11 = icmp eq i32 %48, 0
  br i1 %.not.i11, label %lean_dec.exit, label %53

53:                                               ; preds = %52
  tail call void @lean_dec_ref_cold(ptr noundef nonnull %1) #7
  br label %lean_dec.exit

lean_dec.exit:                                    ; preds = %53, %52, %50, %lean_dec.exit7
  ret ptr %.0.i
}